; Function Attrs: mustprogress uwtable
define hidden void @_ZN6Assimp11LWOImporter15LoadNodalBlocksEj(ptr noundef nonnull align 8 dereferenceable(233) %this, i32 noundef %size) local_unnamed_addr #0 align 2 personality ptr @__gxx_personality_v0 {
entry:
  %mFileBuffer = getelementptr inbounds i8, ptr %this, i64 168
  %0 = load ptr, ptr %mFileBuffer, align 8
  %idx.ext = zext i32 %size to i64
  %add.ptr = getelementptr inbounds i8, ptr %0, i64 %idx.ext
  %cmp.not12 = icmp ugt i32 %size, 8
  br i1 %cmp.not12, label %if.end.preheader, label %while.end

if.end.preheader:                                 ; preds = %entry
  %add.ptr311 = getelementptr inbounds i8, ptr %0, i64 8
  br label %if.end

if.end:                                           ; preds = %if.end.preheader, %sw.epilog
  %add.ptr313 = phi ptr [ %add.ptr3, %sw.epilog ], [ %add.ptr311, %if.end.preheader ]
  %1 = phi ptr [ %add.ptr14, %sw.epilog ], [ %0, %if.end.preheader ]
  %2 = load i32, ptr %1, align 1
  %add.ptr.i = getelementptr inbounds i8, ptr %1, i64 4
  store ptr %add.ptr.i, ptr %mFileBuffer, align 8
  %3 = load i32, ptr %add.ptr.i, align 1
  store ptr %add.ptr313, ptr %mFileBuffer, align 8
  %4 = zext i32 %3 to i64
  %5 = zext i32 %2 to i64
  %6 = shl nuw i64 %5, 32
  %7 = or disjoint i64 %6, %4
  %retval.sroa.0.0.insert.insert.i = tail call i64 @llvm.bswap.i64(i64 %7)
  %head.sroa.0.0.extract.trunc = trunc i64 %retval.sroa.0.0.insert.insert.i to i32
  %cmp5 = icmp eq i32 %head.sroa.0.0.extract.trunc, 1179603533
  br i1 %cmp5, label %if.then6, label %if.end11

if.then6:                                         ; preds = %if.end
  store ptr %add.ptr.i, ptr %mFileBuffer, align 8
  %8 = load i32, ptr %add.ptr.i, align 1
  %add.ptr1.i9 = getelementptr inbounds i8, ptr %1, i64 8
  store ptr %add.ptr1.i9, ptr %mFileBuffer, align 8
  %9 = load i32, ptr %add.ptr1.i9, align 1
  %10 = zext i32 %8 to i64
  %11 = zext i32 %9 to i64
  %12 = shl nuw i64 %11, 32
  %13 = or disjoint i64 %12, %10
  %retval.sroa.0.0.insert.insert.i10 = tail call i64 @llvm.bswap.i64(i64 %13)
  %head.sroa.0.0.extract.trunc2 = trunc i64 %retval.sroa.0.0.insert.insert.i10 to i32
  br label %if.end11

if.end11:                                         ; preds = %if.then6, %if.end
  %14 = phi ptr [ %add.ptr1.i9, %if.then6 ], [ %add.ptr313, %if.end ]
  %bufOffset.0 = phi i64 [ 4, %if.then6 ], [ 0, %if.end ]
  %head.sroa.0.0 = phi i32 [ %head.sroa.0.0.extract.trunc2, %if.then6 ], [ %head.sroa.0.0.extract.trunc, %if.end ]
  %head.sroa.4.0.in.in = phi i64 [ %retval.sroa.0.0.insert.insert.i10, %if.then6 ], [ %retval.sroa.0.0.insert.insert.i, %if.end ]
  %head.sroa.4.0.in = lshr i64 %head.sroa.4.0.in.in, 32
  %head.sroa.4.0 = trunc i64 %head.sroa.4.0.in to i32
  %add.ptr14 = getelementptr inbounds i8, ptr %14, i64 %head.sroa.4.0.in
  %cmp15 = icmp ugt ptr %add.ptr14, %add.ptr
  br i1 %cmp15, label %if.then16, label %if.end17

if.then16:                                        ; preds = %if.end11
  %exception = tail call ptr @__cxa_allocate_exception(i64 16) #15
  invoke void @_ZN17DeadlyImportErrorC2EPKc(ptr noundef nonnull align 8 dereferenceable(16) %exception, ptr noundef nonnull @.str.48)
          to label %invoke.cont unwind label %lpad

invoke.cont:                                      ; preds = %if.then16
  tail call void @__cxa_throw(ptr nonnull %exception, ptr nonnull @_ZTI17DeadlyImportError, ptr nonnull @_ZN17DeadlyImportErrorD2Ev) #16
  unreachable

lpad:                                             ; preds = %if.then16
  %15 = landingpad { ptr, i32 }
          cleanup
  tail call void @__cxa_free_exception(ptr %exception) #15
  resume { ptr, i32 } %15

if.end17:                                         ; preds = %if.end11
  %add.ptr24 = getelementptr inbounds i8, ptr %14, i64 %bufOffset.0
  store ptr %add.ptr24, ptr %mFileBuffer, align 8
  %cond = icmp eq i32 %head.sroa.0.0, 1313752147
  br i1 %cond, label %sw.bb, label %sw.epilog

sw.bb:                                            ; preds = %if.end17
  tail call void @_ZN6Assimp11LWOImporter9LoadNodesEj(ptr noundef nonnull align 8 dereferenceable(233) %this, i32 noundef %head.sroa.4.0)
  br label %sw.epilog

sw.epilog:                                        ; preds = %if.end17, %sw.bb
  store ptr %add.ptr14, ptr %mFileBuffer, align 8
  %add.ptr3 = getelementptr inbounds i8, ptr %add.ptr14, i64 8
  %cmp.not = icmp ult ptr %add.ptr3, %add.ptr
  br i1 %cmp.not, label %if.end, label %while.end, !llvm.loop !36

while.end:                                        ; preds = %sw.epilog, %entry
  ret void
}